target datalayout = "e-m:e-p270:32:32-p271:32:32-p272:64:64-i64:64-i128:128-f80:128-n8:16:32:64-S128"
target triple = "x86_64-pc-linux-gnu"

%struct.inetsock_arg = type { i64, i64, %struct.anon.0, %struct.anon.0, i32, i64, i64 }
%struct.anon.0 = type { i64, i64, ptr }

; Function Attrs: nounwind sspstrong uwtable
define internal i64 @inetsock_cleanup(i64 noundef %0) #0 {
  %2 = alloca i64, align 8
  %3 = alloca ptr, align 8
  store i64 %0, ptr %2, align 8, !tbaa !6
  call void @llvm.lifetime.start.p0(i64 8, ptr %3) #25
  %4 = load i64, ptr %2, align 8, !tbaa !6
  %5 = inttoptr i64 %4 to ptr
  store ptr %5, ptr %3, align 8, !tbaa !116
  %6 = load ptr, ptr %3, align 8, !tbaa !116
  %7 = getelementptr inbounds nuw %struct.inetsock_arg, ptr %6, i32 0, i32 2
  %8 = getelementptr inbounds nuw %struct.anon.0, ptr %7, i32 0, i32 2
  %9 = load ptr, ptr %8, align 8, !tbaa !55
  %10 = icmp ne ptr %9, null
  br i1 %10, label %11, label %19

11:                                               ; preds = %1
  %12 = load ptr, ptr %3, align 8, !tbaa !116
  %13 = getelementptr inbounds nuw %struct.inetsock_arg, ptr %12, i32 0, i32 2
  %14 = getelementptr inbounds nuw %struct.anon.0, ptr %13, i32 0, i32 2
  %15 = load ptr, ptr %14, align 8, !tbaa !55
  call void @rb_freeaddrinfo(ptr noundef %15)
  %16 = load ptr, ptr %3, align 8, !tbaa !116
  %17 = getelementptr inbounds nuw %struct.inetsock_arg, ptr %16, i32 0, i32 2
  %18 = getelementptr inbounds nuw %struct.anon.0, ptr %17, i32 0, i32 2
  store ptr null, ptr %18, align 8, !tbaa !55
  br label %19

19:                                               ; preds = %11, %1
  %20 = load ptr, ptr %3, align 8, !tbaa !116
  %21 = getelementptr inbounds nuw %struct.inetsock_arg, ptr %20, i32 0, i32 3
  %22 = getelementptr inbounds nuw %struct.anon.0, ptr %21, i32 0, i32 2
  %23 = load ptr, ptr %22, align 8, !tbaa !58
  %24 = icmp ne ptr %23, null
  br i1 %24, label %25, label %33

25:                                               ; preds = %19
  %26 = load ptr, ptr %3, align 8, !tbaa !116
  %27 = getelementptr inbounds nuw %struct.inetsock_arg, ptr %26, i32 0, i32 3
  %28 = getelementptr inbounds nuw %struct.anon.0, ptr %27, i32 0, i32 2
  %29 = load ptr, ptr %28, align 8, !tbaa !58
  call void @rb_freeaddrinfo(ptr noundef %29)
  %30 = load ptr, ptr %3, align 8, !tbaa !116
  %31 = getelementptr inbounds nuw %struct.inetsock_arg, ptr %30, i32 0, i32 3
  %32 = getelementptr inbounds nuw %struct.anon.0, ptr %31, i32 0, i32 2
  store ptr null, ptr %32, align 8, !tbaa !58
  br label %33

33:                                               ; preds = %25, %19
  %34 = load ptr, ptr %3, align 8, !tbaa !116
  %35 = getelementptr inbounds nuw %struct.inetsock_arg, ptr %34, i32 0, i32 1
  %36 = load i64, ptr %35, align 8, !tbaa !52
  %37 = icmp ne i64 %36, 4
  br i1 %37, label %38, label %45

38:                                               ; preds = %33
  %39 = load ptr, ptr %3, align 8, !tbaa !116
  %40 = getelementptr inbounds nuw %struct.inetsock_arg, ptr %39, i32 0, i32 1
  %41 = load i64, ptr %40, align 8, !tbaa !52
  %42 = call i64 @rb_io_close(i64 noundef %41)
  %43 = load ptr, ptr %3, align 8, !tbaa !116
  %44 = getelementptr inbounds nuw %struct.inetsock_arg, ptr %43, i32 0, i32 1
  store i64 4, ptr %44, align 8, !tbaa !52
  br label %45

45:                                               ; preds = %38, %33
  call void @llvm.lifetime.end.p0(i64 8, ptr %3) #25
  ret i64 4
}