; Function Attrs: nounwind sspstrong uwtable
define internal noundef i64 @inetsock_cleanup(i64 noundef %0) #0 {
  %2 = inttoptr i64 %0 to ptr
  %3 = getelementptr inbounds nuw i8, ptr %2, i64 32
  %4 = load ptr, ptr %3, align 8, !tbaa !48
  %.not = icmp eq ptr %4, null
  br i1 %.not, label %6, label %5

5:                                                ; preds = %1
  tail call void @rb_freeaddrinfo(ptr noundef nonnull %4) #19
  store ptr null, ptr %3, align 8, !tbaa !48
  br label %6

6:                                                ; preds = %5, %1
  %7 = getelementptr inbounds nuw i8, ptr %2, i64 56
  %8 = load ptr, ptr %7, align 8, !tbaa !51
  %.not11 = icmp eq ptr %8, null
  br i1 %.not11, label %10, label %9

9:                                                ; preds = %6
  tail call void @rb_freeaddrinfo(ptr noundef nonnull %8) #19
  store ptr null, ptr %7, align 8, !tbaa !51
  br label %10

10:                                               ; preds = %9, %6
  %11 = getelementptr inbounds nuw i8, ptr %2, i64 8
  %12 = load i64, ptr %11, align 8, !tbaa !45
  %.not12 = icmp eq i64 %12, 4
  br i1 %.not12, label %15, label %13

13:                                               ; preds = %10
  %14 = tail call i64 @rb_io_close(i64 noundef %12) #19
  store i64 4, ptr %11, align 8, !tbaa !45
  br label %15

15:                                               ; preds = %13, %10
  ret i64 4
}